target datalayout = "e-m:e-p270:32:32-p271:32:32-p272:64:64-i64:64-i128:128-f80:128-n8:16:32:64-S128"
target triple = "x86_64-pc-linux-gnu"

@.str.3 = private unnamed_addr constant [4 x i8] c"%s/\00", align 1

; Function Attrs: nounwind uwtable
define hidden ptr @GENERIC_OpenFileStorage(ptr noundef %0) #0 {
  %2 = alloca ptr, align 8
  %3 = alloca ptr, align 8
  %4 = alloca ptr, align 8
  %5 = alloca i64, align 8
  %6 = alloca ptr, align 8
  %7 = alloca i8, align 1
  %8 = alloca i32, align 4
  store ptr %0, ptr %3, align 8
  call void @llvm.lifetime.start.p0(i64 8, ptr %4) #3
  call void @llvm.lifetime.start.p0(i64 8, ptr %5) #3
  store i64 0, ptr %5, align 8
  call void @llvm.lifetime.start.p0(i64 8, ptr %6) #3
  store ptr null, ptr %6, align 8
  %9 = load ptr, ptr %3, align 8
  %10 = icmp ne ptr %9, null
  br i1 %10, label %11, label %16

11:                                               ; preds = %1
  %12 = load ptr, ptr %3, align 8
  %13 = call i64 @SDL_strlen_REAL(ptr noundef %12)
  %14 = load i64, ptr %5, align 8
  %15 = add i64 %14, %13
  store i64 %15, ptr %5, align 8
  br label %16

16:                                               ; preds = %11, %1
  %17 = load i64, ptr %5, align 8
  %18 = icmp ugt i64 %17, 0
  br i1 %18, label %19, label %47

19:                                               ; preds = %16
  call void @llvm.lifetime.start.p0(i64 1, ptr %7) #3
  %20 = load ptr, ptr %3, align 8
  %21 = load i64, ptr %5, align 8
  %22 = sub i64 %21, 1
  %23 = getelementptr inbounds nuw i8, ptr %20, i64 %22
  %24 = load i8, ptr %23, align 1
  %25 = sext i8 %24 to i32
  %26 = icmp eq i32 %25, 47
  %27 = zext i1 %26 to i8
  store i8 %27, ptr %7, align 1
  %28 = load i8, ptr %7, align 1, !range !3, !noundef !4
  %29 = trunc i8 %28 to i1
  br i1 %29, label %30, label %37

30:                                               ; preds = %19
  %31 = load ptr, ptr %3, align 8
  %32 = call noalias ptr @SDL_strdup_REAL(ptr noundef %31)
  store ptr %32, ptr %6, align 8
  %33 = load ptr, ptr %6, align 8
  %34 = icmp ne ptr %33, null
  br i1 %34, label %36, label %35

35:                                               ; preds = %30
  store ptr null, ptr %2, align 8
  store i32 1, ptr %8, align 4
  br label %44

36:                                               ; preds = %30
  br label %43

37:                                               ; preds = %19
  %38 = load ptr, ptr %3, align 8
  %39 = call i32 (ptr, ptr, ...) @SDL_asprintf_REAL(ptr noundef %6, ptr noundef @.str.3, ptr noundef %38)
  %40 = icmp slt i32 %39, 0
  br i1 %40, label %41, label %42

41:                                               ; preds = %37
  store ptr null, ptr %2, align 8
  store i32 1, ptr %8, align 4
  br label %44

42:                                               ; preds = %37
  br label %43

43:                                               ; preds = %42, %36
  store i32 0, ptr %8, align 4
  br label %44

44:                                               ; preds = %43, %41, %35
  call void @llvm.lifetime.end.p0(i64 1, ptr %7) #3
  %45 = load i32, ptr %8, align 4
  switch i32 %45, label %56 [
    i32 0, label %46
  ]

46:                                               ; preds = %44
  br label %47

47:                                               ; preds = %46, %16
  %48 = load ptr, ptr %6, align 8
  %49 = call ptr @SDL_OpenStorage_REAL(ptr noundef @GENERIC_file_iface, ptr noundef %48)
  store ptr %49, ptr %4, align 8
  %50 = load ptr, ptr %4, align 8
  %51 = icmp eq ptr %50, null
  br i1 %51, label %52, label %54

52:                                               ; preds = %47
  %53 = load ptr, ptr %6, align 8
  call void @SDL_free_REAL(ptr noundef %53)
  br label %54

54:                                               ; preds = %52, %47
  %55 = load ptr, ptr %4, align 8
  store ptr %55, ptr %2, align 8
  store i32 1, ptr %8, align 4
  br label %56

56:                                               ; preds = %54, %44
  call void @llvm.lifetime.end.p0(i64 8, ptr %6) #3
  call void @llvm.lifetime.end.p0(i64 8, ptr %5) #3
  call void @llvm.lifetime.end.p0(i64 8, ptr %4) #3
  %57 = load ptr, ptr %2, align 8
  ret ptr %57
}