; Function Attrs: nounwind uwtable
define hidden ptr @GENERIC_OpenFileStorage(ptr noundef %0) local_unnamed_addr #0 {
  %2 = alloca ptr, align 8
  call void @llvm.lifetime.start.p0(i64 8, ptr nonnull %2) #4
  store ptr null, ptr %2, align 8
  %.not = icmp eq ptr %0, null
  br i1 %.not, label %.critedge, label %3

3:                                                ; preds = %1
  %4 = tail call i64 @SDL_strlen_REAL(ptr noundef nonnull %0) #4
  %.not15 = icmp eq i64 %4, 0
  br i1 %.not15, label %.critedge, label %5

5:                                                ; preds = %3
  %6 = getelementptr i8, ptr %0, i64 %4
  %7 = getelementptr i8, ptr %6, i64 -1
  %8 = load i8, ptr %7, align 1
  %9 = icmp eq i8 %8, 47
  br i1 %9, label %10, label %12

10:                                               ; preds = %5
  %11 = tail call noalias ptr @SDL_strdup_REAL(ptr noundef nonnull %0) #4
  store ptr %11, ptr %2, align 8
  %.not16 = icmp eq ptr %11, null
  br i1 %.not16, label %20, label %.critedge

12:                                               ; preds = %5
  %13 = call i32 (ptr, ptr, ...) @SDL_asprintf_REAL(ptr noundef nonnull %2, ptr noundef nonnull @.str.3, ptr noundef nonnull %0) #4
  %14 = icmp slt i32 %13, 0
  br i1 %14, label %20, label %..critedge_crit_edge

..critedge_crit_edge:                             ; preds = %12
  %.pre = load ptr, ptr %2, align 8
  br label %.critedge

.critedge:                                        ; preds = %..critedge_crit_edge, %1, %10, %3
  %15 = phi ptr [ %.pre, %..critedge_crit_edge ], [ null, %1 ], [ %11, %10 ], [ null, %3 ]
  %16 = call ptr @SDL_OpenStorage_REAL(ptr noundef nonnull @GENERIC_file_iface, ptr noundef %15) #4
  %17 = icmp eq ptr %16, null
  br i1 %17, label %18, label %20

18:                                               ; preds = %.critedge
  %19 = load ptr, ptr %2, align 8
  call void @SDL_free_REAL(ptr noundef %19) #4
  br label %20

20:                                               ; preds = %.critedge, %18, %10, %12
  %.1 = phi ptr [ null, %12 ], [ null, %10 ], [ null, %18 ], [ %16, %.critedge ]
  call void @llvm.lifetime.end.p0(i64 8, ptr nonnull %2) #4
  ret ptr %.1
}